; Function Attrs: mustprogress uwtable
define hidden ptr @_ZN7datalog15mk_explanations15get_rule_symbolEPNS_4ruleE(ptr nocapture noundef nonnull readonly align 8 dereferenceable(120) %this, ptr noundef %r) local_unnamed_addr #3 align 2 personality ptr @__gxx_personality_v0 {
entry:
  %retval = alloca %class.symbol, align 8
  %sstm = alloca %"class.std::__cxx11::basic_stringstream", align 8
  %res = alloca %"class.std::__cxx11::basic_string", align 8
  %ref.tmp = alloca %"class.std::__cxx11::basic_string", align 8
  %m_name.i = getelementptr inbounds i8, ptr %r, i64 72
  %0 = load ptr, ptr %m_name.i, align 8
  %1 = load ptr, ptr @_ZN6symbol4nullE, align 8
  %cmp.i = icmp eq ptr %0, %1
  br i1 %cmp.i, label %if.then, label %return

if.then:                                          ; preds = %entry
  call void @_ZNSt7__cxx1118basic_stringstreamIcSt11char_traitsIcESaIcEEC1Ev(ptr noundef nonnull align 8 dereferenceable(128) %sstm)
  %m_context = getelementptr inbounds i8, ptr %this, i64 32
  %2 = load ptr, ptr %m_context, align 8
  %add.ptr = getelementptr inbounds i8, ptr %sstm, i64 16
  invoke void @_ZNK7datalog4rule7displayERNS_7contextERSob(ptr noundef nonnull align 8 dereferenceable(80) %r, ptr noundef nonnull align 8 dereferenceable(3556) %2, ptr noundef nonnull align 8 dereferenceable(8) %add.ptr, i1 noundef zeroext true)
          to label %invoke.cont unwind label %lpad

invoke.cont:                                      ; preds = %if.then
  invoke void @_ZNKSt7__cxx1118basic_stringstreamIcSt11char_traitsIcESaIcEE3strEv(ptr nonnull sret(%"class.std::__cxx11::basic_string") align 8 %res, ptr noundef nonnull align 8 dereferenceable(128) %sstm)
          to label %invoke.cont3 unwind label %lpad

invoke.cont3:                                     ; preds = %invoke.cont
  %call4 = call noundef i64 @_ZNKSt7__cxx1112basic_stringIcSt11char_traitsIcESaIcEE16find_last_not_ofEcm(ptr noundef nonnull align 8 dereferenceable(32) %res, i8 noundef signext 10, i64 noundef -1) #16
  %add = add i64 %call4, 1
  invoke void @_ZNKSt7__cxx1112basic_stringIcSt11char_traitsIcESaIcEE6substrEmm(ptr nonnull sret(%"class.std::__cxx11::basic_string") align 8 %ref.tmp, ptr noundef nonnull align 8 dereferenceable(32) %res, i64 noundef 0, i64 noundef %add)
          to label %invoke.cont6 unwind label %lpad5

invoke.cont6:                                     ; preds = %invoke.cont3
  %call7 = call noundef nonnull align 8 dereferenceable(32) ptr @_ZNSt7__cxx1112basic_stringIcSt11char_traitsIcESaIcEEaSEOS4_(ptr noundef nonnull align 8 dereferenceable(32) %res, ptr noundef nonnull align 8 dereferenceable(32) %ref.tmp) #16
  call void @_ZNSt7__cxx1112basic_stringIcSt11char_traitsIcESaIcEED1Ev(ptr noundef nonnull align 8 dereferenceable(32) %ref.tmp) #16
  %call8 = call noundef ptr @_ZNKSt7__cxx1112basic_stringIcSt11char_traitsIcESaIcEE5c_strEv(ptr noundef nonnull align 8 dereferenceable(32) %res) #16
  invoke void @_ZN6symbolC1EPKc(ptr noundef nonnull align 8 dereferenceable(8) %retval, ptr noundef %call8)
          to label %invoke.cont9 unwind label %lpad5

invoke.cont9:                                     ; preds = %invoke.cont6
  call void @_ZNSt7__cxx1112basic_stringIcSt11char_traitsIcESaIcEED1Ev(ptr noundef nonnull align 8 dereferenceable(32) %res) #16
  call void @_ZNSt7__cxx1118basic_stringstreamIcSt11char_traitsIcESaIcEED1Ev(ptr noundef nonnull align 8 dereferenceable(128) %sstm) #16
  %.pre = load ptr, ptr %retval, align 8
  br label %return

lpad:                                             ; preds = %invoke.cont, %if.then
  %3 = landingpad { ptr, i32 }
          cleanup
  br label %ehcleanup

lpad5:                                            ; preds = %invoke.cont6, %invoke.cont3
  %4 = landingpad { ptr, i32 }
          cleanup
  call void @_ZNSt7__cxx1112basic_stringIcSt11char_traitsIcESaIcEED1Ev(ptr noundef nonnull align 8 dereferenceable(32) %res) #16
  br label %ehcleanup

ehcleanup:                                        ; preds = %lpad5, %lpad
  %.pn = phi { ptr, i32 } [ %4, %lpad5 ], [ %3, %lpad ]
  call void @_ZNSt7__cxx1118basic_stringstreamIcSt11char_traitsIcESaIcEED1Ev(ptr noundef nonnull align 8 dereferenceable(128) %sstm) #16
  resume { ptr, i32 } %.pn

return:                                           ; preds = %entry, %invoke.cont9
  %5 = phi ptr [ %.pre, %invoke.cont9 ], [ %0, %entry ]
  ret ptr %5
}